target datalayout = "e-m:e-p270:32:32-p271:32:32-p272:64:64-i64:64-i128:128-f80:128-n8:16:32:64-S128"
target triple = "x86_64-pc-linux-gnu"

%struct.view_t = type { ptr, ptr, %struct.lv_style_t, %struct.lv_style_t, %struct.anon }
%struct.lv_style_t = type { ptr, i32, i8 }
%struct.anon = type { ptr, %struct.anon.0, %struct.anon.4 }
%struct.anon.0 = type { ptr, %struct.anon.1, %struct.anon.2, %struct.anon.3 }
%struct.anon.1 = type { ptr, ptr, ptr }
%struct.anon.2 = type { ptr, ptr, ptr, ptr }
%struct.anon.3 = type { ptr, ptr, ptr, ptr, ptr, ptr, ptr, ptr, ptr, ptr, ptr, ptr, ptr, ptr, ptr, ptr, ptr }
%struct.anon.4 = type { ptr, ptr, ptr }

; Function Attrs: nounwind uwtable
define internal void @ctrl_pad_checkbox_event_handler(ptr noundef %0) #0 {
  %2 = alloca ptr, align 8
  %3 = alloca ptr, align 8
  %4 = alloca i8, align 1
  store ptr %0, ptr %2, align 8, !tbaa !3
  call void @llvm.lifetime.start.p0(i64 8, ptr %3) #5
  %5 = load ptr, ptr %2, align 8, !tbaa !3
  %6 = call ptr @lv_event_get_user_data(ptr noundef %5)
  store ptr %6, ptr %3, align 8, !tbaa !3
  %7 = load ptr, ptr %3, align 8, !tbaa !3
  %8 = getelementptr inbounds nuw %struct.view_t, ptr %7, i32 0, i32 1
  %9 = load ptr, ptr %8, align 8, !tbaa !28
  %10 = icmp ne ptr %9, null
  br i1 %10, label %11, label %27

11:                                               ; preds = %1
  call void @llvm.lifetime.start.p0(i64 1, ptr %4) #5
  %12 = load ptr, ptr %2, align 8, !tbaa !3
  %13 = call ptr @lv_event_get_target(ptr noundef %12)
  %14 = call zeroext i1 @lv_obj_has_state(ptr noundef %13, i16 noundef zeroext 1)
  %15 = zext i1 %14 to i8
  store i8 %15, ptr %4, align 1, !tbaa !29
  %16 = load i8, ptr %4, align 1, !tbaa !29, !range !31, !noundef !32
  %17 = trunc i8 %16 to i1
  br i1 %17, label %18, label %22

18:                                               ; preds = %11
  %19 = load ptr, ptr %3, align 8, !tbaa !3
  %20 = getelementptr inbounds nuw %struct.view_t, ptr %19, i32 0, i32 1
  %21 = load ptr, ptr %20, align 8, !tbaa !28
  call void @lv_obj_add_flag(ptr noundef %21, i32 noundef 16)
  br label %26

22:                                               ; preds = %11
  %23 = load ptr, ptr %3, align 8, !tbaa !3
  %24 = getelementptr inbounds nuw %struct.view_t, ptr %23, i32 0, i32 1
  %25 = load ptr, ptr %24, align 8, !tbaa !28
  call void @lv_obj_remove_flag(ptr noundef %25, i32 noundef 16)
  br label %26

26:                                               ; preds = %22, %18
  call void @llvm.lifetime.end.p0(i64 1, ptr %4) #5
  br label %27

27:                                               ; preds = %26, %1
  call void @llvm.lifetime.end.p0(i64 8, ptr %3) #5
  ret void
}