; Function Attrs: nounwind uwtable
define internal void @ctrl_pad_checkbox_event_handler(ptr noundef %0) #0 {
  %2 = tail call ptr @lv_event_get_user_data(ptr noundef %0) #2
  %3 = getelementptr inbounds nuw i8, ptr %2, i64 8
  %4 = load ptr, ptr %3, align 8, !tbaa !26
  %.not = icmp eq ptr %4, null
  br i1 %.not, label %11, label %5

5:                                                ; preds = %1
  %6 = tail call ptr @lv_event_get_target(ptr noundef %0) #2
  %7 = tail call zeroext i1 @lv_obj_has_state(ptr noundef %6, i16 noundef zeroext 1) #2
  %8 = load ptr, ptr %3, align 8, !tbaa !26
  br i1 %7, label %9, label %10

9:                                                ; preds = %5
  tail call void @lv_obj_add_flag(ptr noundef %8, i32 noundef 16) #2
  br label %11

10:                                               ; preds = %5
  tail call void @lv_obj_remove_flag(ptr noundef %8, i32 noundef 16) #2
  br label %11

11:                                               ; preds = %9, %10, %1
  ret void
}